; Function Attrs: mustprogress nounwind uwtable
define dso_local noundef zeroext i1 @_ZNK4i18n12phonenumbers26PhoneNumberOfflineGeocoder20MayFallBackToEnglishERKNSt7__cxx1112basic_stringIcSt11char_traitsIcESaIcEEE(ptr nocapture noundef nonnull readnone align 8 dereferenceable(104) %0, ptr noundef nonnull align 8 dereferenceable(32) %1) local_unnamed_addr #4 align 2 {
  %3 = tail call noundef i32 @_ZNKSt7__cxx1112basic_stringIcSt11char_traitsIcESaIcEE7compareEPKc(ptr noundef nonnull align 8 dereferenceable(32) %1, ptr noundef nonnull @.str.3) #14
  %.not = icmp eq i32 %3, 0
  br i1 %.not, label %9, label %4

4:                                                ; preds = %2
  %5 = tail call noundef i32 @_ZNKSt7__cxx1112basic_stringIcSt11char_traitsIcESaIcEE7compareEPKc(ptr noundef nonnull align 8 dereferenceable(32) %1, ptr noundef nonnull @.str.4) #14
  %.not3 = icmp eq i32 %5, 0
  br i1 %.not3, label %9, label %6

6:                                                ; preds = %4
  %7 = tail call noundef i32 @_ZNKSt7__cxx1112basic_stringIcSt11char_traitsIcESaIcEE7compareEPKc(ptr noundef nonnull align 8 dereferenceable(32) %1, ptr noundef nonnull @.str.5) #14
  %8 = icmp ne i32 %7, 0
  br label %9

9:                                                ; preds = %6, %4, %2
  %10 = phi i1 [ false, %4 ], [ false, %2 ], [ %8, %6 ]
  ret i1 %10
}